; Function Attrs: mustprogress uwtable
define void @rocksdb_writebatch_wi_put_cf(ptr noundef readonly captures(none) %0, ptr noundef readonly captures(none) %1, ptr noundef %2, i64 noundef %3, ptr noundef %4, i64 noundef %5) local_unnamed_addr #0 personality ptr @__gxx_personality_v0 {
  %7 = alloca %"class.rocksdb::Status", align 8
  %8 = alloca %"class.rocksdb::Slice", align 8
  %9 = alloca %"class.rocksdb::Slice", align 8
  %10 = load ptr, ptr %0, align 8, !tbaa !410
  %11 = load ptr, ptr %1, align 8, !tbaa !196
  call void @llvm.lifetime.start.p0(i64 16, ptr nonnull %8) #43
  store ptr %2, ptr %8, align 8, !tbaa !251
  %12 = getelementptr inbounds nuw i8, ptr %8, i64 8
  store i64 %3, ptr %12, align 8, !tbaa !253
  call void @llvm.lifetime.start.p0(i64 16, ptr nonnull %9) #43
  store ptr %4, ptr %9, align 8, !tbaa !251
  %13 = getelementptr inbounds nuw i8, ptr %9, i64 8
  store i64 %5, ptr %13, align 8, !tbaa !253
  %14 = load ptr, ptr %10, align 8, !tbaa !23
  %15 = getelementptr inbounds nuw i8, ptr %14, i64 16
  %16 = load ptr, ptr %15, align 8
  call void %16(ptr dead_on_unwind nonnull writable sret(%"class.rocksdb::Status") align 8 %7, ptr noundef nonnull align 8 dereferenceable(16) %10, ptr noundef %11, ptr noundef nonnull align 8 dereferenceable(16) %8, ptr noundef nonnull align 8 dereferenceable(16) %9)
  %17 = getelementptr inbounds nuw i8, ptr %7, i64 8
  %18 = load ptr, ptr %17, align 8, !tbaa !25
  %.not.i.i = icmp eq ptr %18, null
  br i1 %.not.i.i, label %_ZN7rocksdb6StatusD2Ev.exit, label %_ZNKSt14default_deleteIA_KcEclIS0_EENSt9enable_ifIXsr14is_convertibleIPA_T_PS1_EE5valueEvE4typeEPS5_.exit.i.i

_ZNKSt14default_deleteIA_KcEclIS0_EENSt9enable_ifIXsr14is_convertibleIPA_T_PS1_EE5valueEvE4typeEPS5_.exit.i.i: ; preds = %6
  call void @_ZdaPv(ptr noundef nonnull %18) #45
  br label %_ZN7rocksdb6StatusD2Ev.exit

_ZN7rocksdb6StatusD2Ev.exit:                      ; preds = %6, %_ZNKSt14default_deleteIA_KcEclIS0_EENSt9enable_ifIXsr14is_convertibleIPA_T_PS1_EE5valueEvE4typeEPS5_.exit.i.i
  call void @llvm.lifetime.end.p0(i64 16, ptr nonnull %9) #43
  call void @llvm.lifetime.end.p0(i64 16, ptr nonnull %8) #43
  ret void
}